target datalayout = "e-m:e-p270:32:32-p271:32:32-p272:64:64-i64:64-i128:128-f80:128-n8:16:32:64-S128"
target triple = "x86_64-pc-linux-gnu"

; Function Attrs: nounwind uwtable
define internal void @ps_hybrid_analysis_ileave_c(ptr noalias noundef %0, ptr noundef %1, i32 noundef %2, i32 noundef %3) #1 {
  %5 = alloca ptr, align 8
  %6 = alloca ptr, align 8
  %7 = alloca i32, align 4
  %8 = alloca i32, align 4
  %9 = alloca i32, align 4
  store ptr %0, ptr %5, align 8, !tbaa !17
  store ptr %1, ptr %6, align 8, !tbaa !17
  store i32 %2, ptr %7, align 4, !tbaa !19
  store i32 %3, ptr %8, align 4, !tbaa !19
  br label %10

10:                                               ; preds = %58, %4
  %11 = load i32, ptr %7, align 4, !tbaa !19
  %12 = icmp slt i32 %11, 64
  br i1 %12, label %13, label %61

13:                                               ; preds = %10
  call void @llvm.lifetime.start.p0(i64 4, ptr %9) #3
  store i32 0, ptr %9, align 4, !tbaa !19
  br label %14

14:                                               ; preds = %54, %13
  %15 = load i32, ptr %9, align 4, !tbaa !19
  %16 = load i32, ptr %8, align 4, !tbaa !19
  %17 = icmp slt i32 %15, %16
  br i1 %17, label %19, label %18

18:                                               ; preds = %14
  call void @llvm.lifetime.end.p0(i64 4, ptr %9) #3
  br label %57

19:                                               ; preds = %14
  %20 = load ptr, ptr %6, align 8, !tbaa !17
  %21 = getelementptr inbounds [38 x [64 x i32]], ptr %20, i64 0
  %22 = load i32, ptr %9, align 4, !tbaa !19
  %23 = sext i32 %22 to i64
  %24 = getelementptr inbounds [38 x [64 x i32]], ptr %21, i64 0, i64 %23
  %25 = load i32, ptr %7, align 4, !tbaa !19
  %26 = sext i32 %25 to i64
  %27 = getelementptr inbounds [64 x i32], ptr %24, i64 0, i64 %26
  %28 = load i32, ptr %27, align 4, !tbaa !19
  %29 = load ptr, ptr %5, align 8, !tbaa !17
  %30 = load i32, ptr %7, align 4, !tbaa !19
  %31 = sext i32 %30 to i64
  %32 = getelementptr inbounds [32 x [2 x i32]], ptr %29, i64 %31
  %33 = load i32, ptr %9, align 4, !tbaa !19
  %34 = sext i32 %33 to i64
  %35 = getelementptr inbounds [32 x [2 x i32]], ptr %32, i64 0, i64 %34
  %36 = getelementptr inbounds [2 x i32], ptr %35, i64 0, i64 0
  store i32 %28, ptr %36, align 4, !tbaa !19
  %37 = load ptr, ptr %6, align 8, !tbaa !17
  %38 = getelementptr inbounds [38 x [64 x i32]], ptr %37, i64 1
  %39 = load i32, ptr %9, align 4, !tbaa !19
  %40 = sext i32 %39 to i64
  %41 = getelementptr inbounds [38 x [64 x i32]], ptr %38, i64 0, i64 %40
  %42 = load i32, ptr %7, align 4, !tbaa !19
  %43 = sext i32 %42 to i64
  %44 = getelementptr inbounds [64 x i32], ptr %41, i64 0, i64 %43
  %45 = load i32, ptr %44, align 4, !tbaa !19
  %46 = load ptr, ptr %5, align 8, !tbaa !17
  %47 = load i32, ptr %7, align 4, !tbaa !19
  %48 = sext i32 %47 to i64
  %49 = getelementptr inbounds [32 x [2 x i32]], ptr %46, i64 %48
  %50 = load i32, ptr %9, align 4, !tbaa !19
  %51 = sext i32 %50 to i64
  %52 = getelementptr inbounds [32 x [2 x i32]], ptr %49, i64 0, i64 %51
  %53 = getelementptr inbounds [2 x i32], ptr %52, i64 0, i64 1
  store i32 %45, ptr %53, align 4, !tbaa !19
  br label %54

54:                                               ; preds = %19
  %55 = load i32, ptr %9, align 4, !tbaa !19
  %56 = add nsw i32 %55, 1
  store i32 %56, ptr %9, align 4, !tbaa !19
  br label %14, !llvm.loop !29

57:                                               ; preds = %18
  br label %58

58:                                               ; preds = %57
  %59 = load i32, ptr %7, align 4, !tbaa !19
  %60 = add nsw i32 %59, 1
  store i32 %60, ptr %7, align 4, !tbaa !19
  br label %10, !llvm.loop !30

61:                                               ; preds = %10
  ret void
}