; Function Attrs: nofree norecurse nosync nounwind memory(argmem: readwrite) uwtable
define internal void @ps_hybrid_analysis_ileave_c(ptr noalias noundef writeonly captures(none) %0, ptr noundef readonly captures(none) %1, i32 noundef %2, i32 noundef %3) #1 {
  %5 = icmp slt i32 %2, 64
  br i1 %5, label %.preheader.lr.ph, label %._crit_edge19

.preheader.lr.ph:                                 ; preds = %4
  %6 = icmp sgt i32 %3, 0
  %7 = getelementptr inbounds nuw i8, ptr %1, i64 9728
  br i1 %6, label %.preheader.us.preheader, label %._crit_edge19

.preheader.us.preheader:                          ; preds = %.preheader.lr.ph
  %8 = sext i32 %2 to i64
  %wide.trip.count = zext nneg i32 %3 to i64
  br label %.preheader.us

.preheader.us:                                    ; preds = %.preheader.us.preheader, %._crit_edge.us
  %indvars.iv22 = phi i64 [ %8, %.preheader.us.preheader ], [ %indvars.iv.next23, %._crit_edge.us ]
  br label %9

9:                                                ; preds = %.preheader.us, %9
  %indvars.iv = phi i64 [ 0, %.preheader.us ], [ %indvars.iv.next, %9 ]
  %10 = getelementptr inbounds [38 x [64 x i32]], ptr %1, i64 0, i64 %indvars.iv, i64 %indvars.iv22
  %11 = load i32, ptr %10, align 4, !tbaa !15
  %12 = getelementptr inbounds [32 x [2 x i32]], ptr %0, i64 %indvars.iv22, i64 %indvars.iv
  store i32 %11, ptr %12, align 4, !tbaa !15
  %13 = getelementptr inbounds [38 x [64 x i32]], ptr %7, i64 0, i64 %indvars.iv, i64 %indvars.iv22
  %14 = load i32, ptr %13, align 4, !tbaa !15
  %15 = getelementptr inbounds nuw i8, ptr %12, i64 4
  store i32 %14, ptr %15, align 4, !tbaa !15
  %indvars.iv.next = add nuw nsw i64 %indvars.iv, 1
  %exitcond.not = icmp eq i64 %indvars.iv.next, %wide.trip.count
  br i1 %exitcond.not, label %._crit_edge.us, label %9, !llvm.loop !25

._crit_edge.us:                                   ; preds = %9
  %indvars.iv.next23 = add nsw i64 %indvars.iv22, 1
  %exitcond25.not = icmp eq i64 %indvars.iv.next23, 64
  br i1 %exitcond25.not, label %._crit_edge19, label %.preheader.us, !llvm.loop !26

._crit_edge19:                                    ; preds = %._crit_edge.us, %.preheader.lr.ph, %4
  ret void
}